target datalayout = "e-m:e-p270:32:32-p271:32:32-p272:64:64-i64:64-i128:128-f80:128-n8:16:32:64-S128"
target triple = "x86_64-pc-linux-gnu"

; Function Attrs: mustprogress nounwind uwtable
define noundef i32 @_ZN19OpenColorIO_v2_5dev26CombineTransformDirectionsENS_18TransformDirectionES0_(i32 noundef %0, i32 noundef %1) #4 {
  %3 = alloca i32, align 4
  %4 = alloca i32, align 4
  %5 = alloca i32, align 4
  store i32 %0, ptr %4, align 4, !tbaa !53
  store i32 %1, ptr %5, align 4, !tbaa !53
  %6 = load i32, ptr %4, align 4, !tbaa !53
  %7 = icmp eq i32 %6, 0
  br i1 %7, label %8, label %12

8:                                                ; preds = %2
  %9 = load i32, ptr %5, align 4, !tbaa !53
  %10 = icmp eq i32 %9, 0
  br i1 %10, label %11, label %12

11:                                               ; preds = %8
  store i32 0, ptr %3, align 4
  br label %20

12:                                               ; preds = %8, %2
  %13 = load i32, ptr %4, align 4, !tbaa !53
  %14 = icmp eq i32 %13, 1
  br i1 %14, label %15, label %19

15:                                               ; preds = %12
  %16 = load i32, ptr %5, align 4, !tbaa !53
  %17 = icmp eq i32 %16, 1
  br i1 %17, label %18, label %19

18:                                               ; preds = %15
  store i32 0, ptr %3, align 4
  br label %20

19:                                               ; preds = %15, %12
  store i32 1, ptr %3, align 4
  br label %20

20:                                               ; preds = %19, %18, %11
  %21 = load i32, ptr %3, align 4
  ret i32 %21
}