; Function Attrs: mustprogress nofree norecurse nosync nounwind willreturn memory(none) uwtable
define noundef range(i32 0, 2) i32 @_ZN19OpenColorIO_v2_5dev26CombineTransformDirectionsENS_18TransformDirectionES0_(i32 noundef %0, i32 noundef %1) local_unnamed_addr #9 {
  %3 = or i32 %1, %0
  %or.cond = icmp ne i32 %3, 0
  %4 = icmp ne i32 %0, 1
  %5 = icmp ne i32 %1, 1
  %or.cond3.not = or i1 %4, %5
  %narrow = and i1 %or.cond, %or.cond3.not
  %.0 = zext i1 %narrow to i32
  ret i32 %.0
}